target datalayout = "e-m:e-p270:32:32-p271:32:32-p272:64:64-i64:64-i128:128-f80:128-n8:16:32:64-S128"
target triple = "x86_64-pc-linux-gnu"

@.str.12 = private unnamed_addr constant [27 x i8] c"Integer out of Float range\00", align 1

; Function Attrs: nounwind sspstrong uwtable
define dso_local double @rb_big2dbl(i64 noundef %0) #0 {
  %2 = alloca i64, align 8
  %3 = alloca double, align 8
  store i64 %0, ptr %2, align 8, !tbaa !7
  call void @llvm.lifetime.start.p0(i64 8, ptr %3) #24
  %4 = load i64, ptr %2, align 8, !tbaa !7
  %5 = call double @big2dbl(i64 noundef %4)
  store double %5, ptr %3, align 8, !tbaa !146
  %6 = load double, ptr %3, align 8, !tbaa !146
  %7 = call double @llvm.fabs.f64(double %6) #33
  %8 = fcmp oeq double %7, 0x7FF0000000000000
  %9 = bitcast double %6 to i64
  %10 = icmp slt i64 %9, 0
  %11 = select i1 %10, i32 -1, i32 1
  %12 = select i1 %8, i32 %11, i32 0
  %13 = icmp ne i32 %12, 0
  br i1 %13, label %14, label %20

14:                                               ; preds = %1
  call void (ptr, ...) @rb_warning(ptr noundef @.str.12)
  %15 = load double, ptr %3, align 8, !tbaa !146
  %16 = fcmp olt double %15, 0.000000e+00
  br i1 %16, label %17, label %18

17:                                               ; preds = %14
  store double 0xFFF0000000000000, ptr %3, align 8, !tbaa !146
  br label %19

18:                                               ; preds = %14
  store double 0x7FF0000000000000, ptr %3, align 8, !tbaa !146
  br label %19

19:                                               ; preds = %18, %17
  br label %20

20:                                               ; preds = %19, %1
  %21 = load double, ptr %3, align 8, !tbaa !146
  call void @llvm.lifetime.end.p0(i64 8, ptr %3) #24
  ret double %21
}