; Function Attrs: nounwind sspstrong uwtable
define dso_local double @rb_big2dbl(i64 noundef %0) local_unnamed_addr #0 {
  %2 = tail call fastcc double @big2dbl(i64 noundef %0)
  %3 = tail call double @llvm.fabs.f64(double %2) #34
  %4 = fcmp oeq double %3, 0x7FF0000000000000
  br i1 %4, label %5, label %7

5:                                                ; preds = %1
  tail call void (ptr, ...) @rb_warning(ptr noundef nonnull @.str.12) #27
  %6 = fcmp olt double %2, 0.000000e+00
  %. = select i1 %6, double 0xFFF0000000000000, double 0x7FF0000000000000
  br label %7

7:                                                ; preds = %5, %1
  %.0 = phi double [ %2, %1 ], [ %., %5 ]
  ret double %.0
}